; Function Attrs: null_pointer_is_valid sspstrong uwtable
define internal i32 @dissect_mountlist(ptr noundef %0, i32 noundef %1, ptr readnone captures(none) %2, ptr noundef %3, ptr readnone captures(none) %4) #0 {
  %6 = alloca ptr, align 8
  %7 = alloca ptr, align 8
  call void @llvm.lifetime.start.p0(i64 8, ptr nonnull %6) #5
  call void @llvm.lifetime.start.p0(i64 8, ptr nonnull %7) #5
  %8 = load i32, ptr @hf_mount_mountlist, align 4
  %9 = tail call ptr @proto_tree_add_item(ptr noundef %3, i32 noundef %8, ptr noundef %0, i32 noundef %1, i32 noundef -1, i32 noundef 0)
  %10 = load i32, ptr @ett_mount_mountlist, align 4
  %11 = tail call ptr @proto_item_add_subtree(ptr noundef %9, i32 noundef %10)
  %12 = load i32, ptr @hf_mount_mountlist_hostname, align 4
  %13 = call i32 @dissect_rpc_string(ptr noundef %0, ptr noundef %11, i32 noundef %12, i32 noundef %1, ptr noundef nonnull %6)
  %14 = load i32, ptr @hf_mount_mountlist_directory, align 4
  %15 = call i32 @dissect_rpc_string(ptr noundef %0, ptr noundef %11, i32 noundef %14, i32 noundef %13, ptr noundef nonnull %7)
  %.not = icmp eq ptr %9, null
  br i1 %.not, label %20, label %16

16:                                               ; preds = %5
  %17 = load ptr, ptr %6, align 8
  %18 = load ptr, ptr %7, align 8
  call void (ptr, ptr, ...) @proto_item_set_text(ptr noundef nonnull %9, ptr noundef nonnull @.str.191, ptr noundef %17, ptr noundef %18)
  %19 = sub i32 %15, %1
  call void @proto_item_set_len(ptr noundef nonnull %9, i32 noundef %19)
  br label %20

20:                                               ; preds = %16, %5
  call void @llvm.lifetime.end.p0(i64 8, ptr nonnull %7) #5
  call void @llvm.lifetime.end.p0(i64 8, ptr nonnull %6) #5
  ret i32 %15
}